target datalayout = "e-m:e-p270:32:32-p271:32:32-p272:64:64-i64:64-i128:128-f80:128-n8:16:32:64-S128"
target triple = "x86_64-pc-linux-gnu"

%struct.H5C_class_t = type { i32, ptr, i32, i32, ptr, ptr, ptr, ptr, ptr, ptr, ptr, ptr, ptr, ptr }
%struct.H5G_node_t = type { %struct.H5C_cache_entry_t, i64, i32, ptr }
%struct.H5C_cache_entry_t = type { ptr, i64, i64, ptr, i8, ptr, i8, i8, i8, i8, i32, i8, i8, i8, i8, i8, i32, ptr, i32, i32, i32, i32, i32, i8, i8, ptr, ptr, ptr, ptr, ptr, ptr, i8, i32, i8, i64, ptr, i64, i64, i32, i8, i32, i32, i8, ptr, ptr, ptr }
%struct.H5G_node_key_t = type { i64 }

@H5_H5G_node_t_reg_free_list = global { i8, [3 x i8], i32, i32, [4 x i8], ptr, i64, ptr } { i8 0, [3 x i8] zeroinitializer, i32 0, i32 0, [4 x i8] zeroinitializer, ptr @.str, i64 272, ptr null }, align 8
@H5_H5G_entry_t_seq_free_list = global { { i8, [3 x i8], i32, i32, [4 x i8], i64, ptr, ptr }, i64 } { { i8, [3 x i8], i32, i32, [4 x i8], i64, ptr, ptr } { i8 0, [3 x i8] zeroinitializer, i32 0, i32 0, [4 x i8] zeroinitializer, i64 0, ptr @.str.1, ptr null }, i64 40 }, align 8
@H5G_init_g = external global i8, align 1
@H5_libterm_g = external global i8, align 1
@H5AC_SNODE = external constant [1 x %struct.H5C_class_t], align 16
@.str.2 = private unnamed_addr constant [101 x i8] c"generated/home/dtcxzyw/WorkSpace/Projects/compilers/llvm-opt-benchmark/bench/hdf5/hdf5/src/H5Gnode.c\00", align 1
@H5E_SYM_g = external global i64, align 8
@H5E_CANTINIT_g = external global i64, align 8
@H5E_CANTALLOC_g = external global i64, align 8
@.str.17 = private unnamed_addr constant [25 x i8] c"memory allocation failed\00", align 1
@__func__.H5G__node_create = private unnamed_addr constant [17 x i8] c"H5G__node_create\00", align 1
@.str.42 = private unnamed_addr constant [30 x i8] c"unable to allocate file space\00", align 1
@.str.43 = private unnamed_addr constant [39 x i8] c"unable to cache symbol table leaf node\00", align 1

; Function Attrs: nounwind uwtable
define internal i32 @H5G__node_create(ptr noundef %0, i32 noundef %1, ptr noundef %2, ptr noundef %3, ptr noundef %4, ptr noundef %5) #0 {
  %7 = alloca ptr, align 8
  %8 = alloca i32, align 4
  %9 = alloca ptr, align 8
  %10 = alloca ptr, align 8
  %11 = alloca ptr, align 8
  %12 = alloca ptr, align 8
  %13 = alloca ptr, align 8
  %14 = alloca ptr, align 8
  %15 = alloca ptr, align 8
  %16 = alloca i32, align 4
  %17 = alloca i8, align 1
  store ptr %0, ptr %7, align 8, !tbaa !3
  store i32 %1, ptr %8, align 4, !tbaa !13
  store ptr %2, ptr %9, align 8, !tbaa !8
  store ptr %3, ptr %10, align 8, !tbaa !8
  store ptr %4, ptr %11, align 8, !tbaa !8
  store ptr %5, ptr %12, align 8, !tbaa !15
  call void @llvm.lifetime.start.p0(i64 8, ptr %13) #8
  %18 = load ptr, ptr %9, align 8, !tbaa !8
  store ptr %18, ptr %13, align 8, !tbaa !17
  call void @llvm.lifetime.start.p0(i64 8, ptr %14) #8
  %19 = load ptr, ptr %11, align 8, !tbaa !8
  store ptr %19, ptr %14, align 8, !tbaa !17
  call void @llvm.lifetime.start.p0(i64 8, ptr %15) #8
  store ptr null, ptr %15, align 8, !tbaa !19
  call void @llvm.lifetime.start.p0(i64 4, ptr %16) #8
  store i32 0, ptr %16, align 4, !tbaa !13
  call void @llvm.lifetime.start.p0(i64 1, ptr %17) #8
  store i8 0, ptr %17, align 1, !tbaa !9
  %20 = load i8, ptr @H5G_init_g, align 1, !tbaa !9, !range !11, !noundef !12
  %21 = trunc i8 %20 to i1
  br i1 %21, label %26, label %22

22:                                               ; preds = %6
  %23 = load i8, ptr @H5_libterm_g, align 1, !tbaa !9, !range !11, !noundef !12
  %24 = trunc i8 %23 to i1
  %25 = xor i1 %24, true
  br label %26

26:                                               ; preds = %22, %6
  %27 = phi i1 [ true, %6 ], [ %25, %22 ]
  %28 = xor i1 %27, true
  %29 = xor i1 %28, true
  %30 = zext i1 %29 to i32
  %31 = sext i32 %30 to i64
  %32 = call i64 @llvm.expect.i64(i64 %31, i64 1)
  %33 = icmp ne i64 %32, 0
  br i1 %33, label %34, label %191

34:                                               ; preds = %26
  %35 = call noalias ptr @H5FL_reg_calloc(ptr noundef @H5_H5G_node_t_reg_free_list)
  store ptr %35, ptr %15, align 8, !tbaa !19
  %36 = icmp eq ptr null, %35
  br i1 %36, label %37, label %56

37:                                               ; preds = %34
  br label %38

38:                                               ; preds = %37
  br label %39

39:                                               ; preds = %38
  br label %40

40:                                               ; preds = %39
  %41 = load i64, ptr @H5E_SYM_g, align 8, !tbaa !21
  %42 = load i64, ptr @H5E_CANTALLOC_g, align 8, !tbaa !21
  %43 = call i32 (ptr, ptr, i32, i64, i64, ptr, ...) @H5E_printf_stack(ptr noundef @.str.2, ptr noundef @__func__.H5G__node_create, i32 noundef 291, i64 noundef %41, i64 noundef %42, ptr noundef @.str.17)
  br label %44

44:                                               ; preds = %40
  br label %45

45:                                               ; preds = %44
  store i8 1, ptr %17, align 1, !tbaa !9
  %46 = load i8, ptr %17, align 1, !tbaa !9, !range !11, !noundef !12
  %47 = trunc i8 %46 to i1
  %48 = zext i1 %47 to i8
  store i8 %48, ptr %17, align 1, !tbaa !9
  br label %49

49:                                               ; preds = %45
  br label %50

50:                                               ; preds = %49
  br label %51

51:                                               ; preds = %50
  store i32 -1, ptr %16, align 4, !tbaa !13
  br label %168

52:                                               ; No predecessors!
  br label %53

53:                                               ; preds = %52
  br label %54

54:                                               ; preds = %53
  br label %55

55:                                               ; preds = %54
  br label %56

56:                                               ; preds = %55, %34
  %57 = load ptr, ptr %7, align 8, !tbaa !3
  %58 = call i32 @H5F_sym_leaf_k(ptr noundef %57)
  %59 = mul i32 2, %58
  %60 = load ptr, ptr %7, align 8, !tbaa !3
  %61 = call zeroext i8 @H5F_sizeof_size(ptr noundef %60)
  %62 = zext i8 %61 to i32
  %63 = load ptr, ptr %7, align 8, !tbaa !3
  %64 = call zeroext i8 @H5F_sizeof_addr(ptr noundef %63)
  %65 = zext i8 %64 to i32
  %66 = add nsw i32 %62, %65
  %67 = add nsw i32 %66, 4
  %68 = add nsw i32 %67, 4
  %69 = add nsw i32 %68, 16
  %70 = mul i32 %59, %69
  %71 = add i32 8, %70
  %72 = zext i32 %71 to i64
  %73 = load ptr, ptr %15, align 8, !tbaa !19
  %74 = getelementptr inbounds nuw %struct.H5G_node_t, ptr %73, i32 0, i32 1
  store i64 %72, ptr %74, align 8, !tbaa !23
  %75 = load ptr, ptr %7, align 8, !tbaa !3
  %76 = load ptr, ptr %15, align 8, !tbaa !19
  %77 = getelementptr inbounds nuw %struct.H5G_node_t, ptr %76, i32 0, i32 1
  %78 = load i64, ptr %77, align 8, !tbaa !23
  %79 = call i64 @H5MF_alloc(ptr noundef %75, i32 noundef 2, i64 noundef %78)
  %80 = load ptr, ptr %12, align 8, !tbaa !15
  store i64 %79, ptr %80, align 8, !tbaa !21
  %81 = icmp eq i64 -1, %79
  br i1 %81, label %82, label %101

82:                                               ; preds = %56
  br label %83

83:                                               ; preds = %82
  br label %84

84:                                               ; preds = %83
  br label %85

85:                                               ; preds = %84
  %86 = load i64, ptr @H5E_SYM_g, align 8, !tbaa !21
  %87 = load i64, ptr @H5E_CANTINIT_g, align 8, !tbaa !21
  %88 = call i32 (ptr, ptr, i32, i64, i64, ptr, ...) @H5E_printf_stack(ptr noundef @.str.2, ptr noundef @__func__.H5G__node_create, i32 noundef 294, i64 noundef %86, i64 noundef %87, ptr noundef @.str.42)
  br label %89

89:                                               ; preds = %85
  br label %90

90:                                               ; preds = %89
  store i8 1, ptr %17, align 1, !tbaa !9
  %91 = load i8, ptr %17, align 1, !tbaa !9, !range !11, !noundef !12
  %92 = trunc i8 %91 to i1
  %93 = zext i1 %92 to i8
  store i8 %93, ptr %17, align 1, !tbaa !9
  br label %94

94:                                               ; preds = %90
  br label %95

95:                                               ; preds = %94
  br label %96

96:                                               ; preds = %95
  store i32 -1, ptr %16, align 4, !tbaa !13
  br label %168

97:                                               ; No predecessors!
  br label %98

98:                                               ; preds = %97
  br label %99

99:                                               ; preds = %98
  br label %100

100:                                              ; preds = %99
  br label %101

101:                                              ; preds = %100, %56
  %102 = load ptr, ptr %7, align 8, !tbaa !3
  %103 = call i32 @H5F_sym_leaf_k(ptr noundef %102)
  %104 = mul i32 2, %103
  %105 = zext i32 %104 to i64
  %106 = call noalias ptr @H5FL_seq_calloc(ptr noundef @H5_H5G_entry_t_seq_free_list, i64 noundef %105)
  %107 = load ptr, ptr %15, align 8, !tbaa !19
  %108 = getelementptr inbounds nuw %struct.H5G_node_t, ptr %107, i32 0, i32 3
  store ptr %106, ptr %108, align 8, !tbaa !32
  %109 = icmp eq ptr null, %106
  br i1 %109, label %110, label %129

110:                                              ; preds = %101
  br label %111

111:                                              ; preds = %110
  br label %112

112:                                              ; preds = %111
  br label %113

113:                                              ; preds = %112
  %114 = load i64, ptr @H5E_SYM_g, align 8, !tbaa !21
  %115 = load i64, ptr @H5E_CANTALLOC_g, align 8, !tbaa !21
  %116 = call i32 (ptr, ptr, i32, i64, i64, ptr, ...) @H5E_printf_stack(ptr noundef @.str.2, ptr noundef @__func__.H5G__node_create, i32 noundef 296, i64 noundef %114, i64 noundef %115, ptr noundef @.str.17)
  br label %117

117:                                              ; preds = %113
  br label %118

118:                                              ; preds = %117
  store i8 1, ptr %17, align 1, !tbaa !9
  %119 = load i8, ptr %17, align 1, !tbaa !9, !range !11, !noundef !12
  %120 = trunc i8 %119 to i1
  %121 = zext i1 %120 to i8
  store i8 %121, ptr %17, align 1, !tbaa !9
  br label %122

122:                                              ; preds = %118
  br label %123

123:                                              ; preds = %122
  br label %124

124:                                              ; preds = %123
  store i32 -1, ptr %16, align 4, !tbaa !13
  br label %168

125:                                              ; No predecessors!
  br label %126

126:                                              ; preds = %125
  br label %127

127:                                              ; preds = %126
  br label %128

128:                                              ; preds = %127
  br label %129

129:                                              ; preds = %128, %101
  %130 = load ptr, ptr %7, align 8, !tbaa !3
  %131 = load ptr, ptr %12, align 8, !tbaa !15
  %132 = load i64, ptr %131, align 8, !tbaa !21
  %133 = load ptr, ptr %15, align 8, !tbaa !19
  %134 = call i32 @H5AC_insert_entry(ptr noundef %130, ptr noundef @H5AC_SNODE, i64 noundef %132, ptr noundef %133, i32 noundef 0)
  %135 = icmp slt i32 %134, 0
  br i1 %135, label %136, label %155

136:                                              ; preds = %129
  br label %137

137:                                              ; preds = %136
  br label %138

138:                                              ; preds = %137
  br label %139

139:                                              ; preds = %138
  %140 = load i64, ptr @H5E_SYM_g, align 8, !tbaa !21
  %141 = load i64, ptr @H5E_CANTINIT_g, align 8, !tbaa !21
  %142 = call i32 (ptr, ptr, i32, i64, i64, ptr, ...) @H5E_printf_stack(ptr noundef @.str.2, ptr noundef @__func__.H5G__node_create, i32 noundef 299, i64 noundef %140, i64 noundef %141, ptr noundef @.str.43)
  br label %143

143:                                              ; preds = %139
  br label %144

144:                                              ; preds = %143
  store i8 1, ptr %17, align 1, !tbaa !9
  %145 = load i8, ptr %17, align 1, !tbaa !9, !range !11, !noundef !12
  %146 = trunc i8 %145 to i1
  %147 = zext i1 %146 to i8
  store i8 %147, ptr %17, align 1, !tbaa !9
  br label %148

148:                                              ; preds = %144
  br label %149

149:                                              ; preds = %148
  br label %150

150:                                              ; preds = %149
  store i32 -1, ptr %16, align 4, !tbaa !13
  br label %168

151:                                              ; No predecessors!
  br label %152

152:                                              ; preds = %151
  br label %153

153:                                              ; preds = %152
  br label %154

154:                                              ; preds = %153
  br label %155

155:                                              ; preds = %154, %129
  %156 = load ptr, ptr %13, align 8, !tbaa !17
  %157 = icmp ne ptr %156, null
  br i1 %157, label %158, label %161

158:                                              ; preds = %155
  %159 = load ptr, ptr %13, align 8, !tbaa !17
  %160 = getelementptr inbounds nuw %struct.H5G_node_key_t, ptr %159, i32 0, i32 0
  store i64 0, ptr %160, align 8, !tbaa !33
  br label %161

161:                                              ; preds = %158, %155
  %162 = load ptr, ptr %14, align 8, !tbaa !17
  %163 = icmp ne ptr %162, null
  br i1 %163, label %164, label %167

164:                                              ; preds = %161
  %165 = load ptr, ptr %14, align 8, !tbaa !17
  %166 = getelementptr inbounds nuw %struct.H5G_node_key_t, ptr %165, i32 0, i32 0
  store i64 0, ptr %166, align 8, !tbaa !33
  br label %167

167:                                              ; preds = %164, %161
  br label %168

168:                                              ; preds = %167, %150, %124, %96, %51
  %169 = load i32, ptr %16, align 4, !tbaa !13
  %170 = icmp slt i32 %169, 0
  br i1 %170, label %171, label %190

171:                                              ; preds = %168
  %172 = load ptr, ptr %15, align 8, !tbaa !19
  %173 = icmp ne ptr %172, null
  br i1 %173, label %174, label %189

174:                                              ; preds = %171
  %175 = load ptr, ptr %15, align 8, !tbaa !19
  %176 = getelementptr inbounds nuw %struct.H5G_node_t, ptr %175, i32 0, i32 3
  %177 = load ptr, ptr %176, align 8, !tbaa !32
  %178 = icmp ne ptr %177, null
  br i1 %178, label %179, label %186

179:                                              ; preds = %174
  %180 = load ptr, ptr %15, align 8, !tbaa !19
  %181 = getelementptr inbounds nuw %struct.H5G_node_t, ptr %180, i32 0, i32 3
  %182 = load ptr, ptr %181, align 8, !tbaa !32
  %183 = call ptr @H5FL_seq_free(ptr noundef @H5_H5G_entry_t_seq_free_list, ptr noundef %182)
  %184 = load ptr, ptr %15, align 8, !tbaa !19
  %185 = getelementptr inbounds nuw %struct.H5G_node_t, ptr %184, i32 0, i32 3
  store ptr %183, ptr %185, align 8, !tbaa !32
  br label %186

186:                                              ; preds = %179, %174
  %187 = load ptr, ptr %15, align 8, !tbaa !19
  %188 = call ptr @H5FL_reg_free(ptr noundef @H5_H5G_node_t_reg_free_list, ptr noundef %187)
  store ptr %188, ptr %15, align 8, !tbaa !19
  br label %189

189:                                              ; preds = %186, %171
  br label %190

190:                                              ; preds = %189, %168
  br label %191

191:                                              ; preds = %190, %26
  %192 = load i32, ptr %16, align 4, !tbaa !13
  call void @llvm.lifetime.end.p0(i64 1, ptr %17) #8
  call void @llvm.lifetime.end.p0(i64 4, ptr %16) #8
  call void @llvm.lifetime.end.p0(i64 8, ptr %15) #8
  call void @llvm.lifetime.end.p0(i64 8, ptr %14) #8
  call void @llvm.lifetime.end.p0(i64 8, ptr %13) #8
  ret i32 %192
}