; Function Attrs: nounwind uwtable
define internal range(i32 -1, 1) i32 @H5G__node_create(ptr noundef %0, i32 %1, ptr noundef writeonly captures(address_is_null) %2, ptr readnone captures(none) %3, ptr noundef writeonly captures(address_is_null) %4, ptr noundef captures(none) %5) #0 {
  %7 = load i8, ptr @H5G_init_g, align 1, !tbaa !3, !range !7, !noundef !8
  %8 = trunc nuw i8 %7 to i1
  %9 = load i8, ptr @H5_libterm_g, align 1, !range !7
  %10 = trunc nuw i8 %9 to i1
  %11 = xor i1 %10, true
  %12 = select i1 %8, i1 true, i1 %11
  br i1 %12, label %13, label %.thread, !prof !9

13:                                               ; preds = %6
  %14 = tail call noalias ptr @H5FL_reg_calloc(ptr noundef nonnull @H5_H5G_node_t_reg_free_list) #9
  %15 = icmp eq ptr %14, null
  br i1 %15, label %16, label %20

16:                                               ; preds = %13
  %17 = load i64, ptr @H5E_SYM_g, align 8, !tbaa !10
  %18 = load i64, ptr @H5E_CANTALLOC_g, align 8, !tbaa !10
  %19 = tail call i32 (ptr, ptr, i32, i64, i64, ptr, ...) @H5E_printf_stack(ptr noundef nonnull @.str.2, ptr noundef nonnull @__func__.H5G__node_create, i32 noundef 291, i64 noundef %17, i64 noundef %18, ptr noundef nonnull @.str.17) #9
  br label %.thread

20:                                               ; preds = %13
  %21 = tail call i32 @H5F_sym_leaf_k(ptr noundef %0) #9
  %22 = shl i32 %21, 1
  %23 = tail call zeroext i8 @H5F_sizeof_size(ptr noundef %0) #9
  %24 = zext i8 %23 to i32
  %25 = tail call zeroext i8 @H5F_sizeof_addr(ptr noundef %0) #9
  %26 = zext i8 %25 to i32
  %27 = add nuw nsw i32 %24, 24
  %28 = add nuw nsw i32 %27, %26
  %29 = mul i32 %22, %28
  %30 = add i32 %29, 8
  %31 = zext i32 %30 to i64
  %32 = getelementptr inbounds nuw i8, ptr %14, i64 248
  store i64 %31, ptr %32, align 8, !tbaa !12
  %33 = tail call i64 @H5MF_alloc(ptr noundef %0, i32 noundef 2, i64 noundef %31) #9
  store i64 %33, ptr %5, align 8, !tbaa !10
  %34 = icmp eq i64 %33, -1
  br i1 %34, label %35, label %39

35:                                               ; preds = %20
  %36 = load i64, ptr @H5E_SYM_g, align 8, !tbaa !10
  %37 = load i64, ptr @H5E_CANTINIT_g, align 8, !tbaa !10
  %38 = tail call i32 (ptr, ptr, i32, i64, i64, ptr, ...) @H5E_printf_stack(ptr noundef nonnull @.str.2, ptr noundef nonnull @__func__.H5G__node_create, i32 noundef 294, i64 noundef %36, i64 noundef %37, ptr noundef nonnull @.str.42) #9
  br label %62

39:                                               ; preds = %20
  %40 = tail call i32 @H5F_sym_leaf_k(ptr noundef %0) #9
  %41 = shl i32 %40, 1
  %42 = zext i32 %41 to i64
  %43 = tail call noalias ptr @H5FL_seq_calloc(ptr noundef nonnull @H5_H5G_entry_t_seq_free_list, i64 noundef %42) #9
  %44 = getelementptr inbounds nuw i8, ptr %14, i64 264
  store ptr %43, ptr %44, align 8, !tbaa !24
  %45 = icmp eq ptr %43, null
  br i1 %45, label %46, label %50

46:                                               ; preds = %39
  %47 = load i64, ptr @H5E_SYM_g, align 8, !tbaa !10
  %48 = load i64, ptr @H5E_CANTALLOC_g, align 8, !tbaa !10
  %49 = tail call i32 (ptr, ptr, i32, i64, i64, ptr, ...) @H5E_printf_stack(ptr noundef nonnull @.str.2, ptr noundef nonnull @__func__.H5G__node_create, i32 noundef 296, i64 noundef %47, i64 noundef %48, ptr noundef nonnull @.str.17) #9
  br label %62

50:                                               ; preds = %39
  %51 = load i64, ptr %5, align 8, !tbaa !10
  %52 = tail call i32 @H5AC_insert_entry(ptr noundef %0, ptr noundef nonnull @H5AC_SNODE, i64 noundef %51, ptr noundef nonnull %14, i32 noundef 0) #9
  %53 = icmp slt i32 %52, 0
  br i1 %53, label %54, label %58

54:                                               ; preds = %50
  %55 = load i64, ptr @H5E_SYM_g, align 8, !tbaa !10
  %56 = load i64, ptr @H5E_CANTINIT_g, align 8, !tbaa !10
  %57 = tail call i32 (ptr, ptr, i32, i64, i64, ptr, ...) @H5E_printf_stack(ptr noundef nonnull @.str.2, ptr noundef nonnull @__func__.H5G__node_create, i32 noundef 299, i64 noundef %55, i64 noundef %56, ptr noundef nonnull @.str.43) #9
  br label %62

58:                                               ; preds = %50
  %.not = icmp eq ptr %2, null
  br i1 %.not, label %60, label %59

59:                                               ; preds = %58
  store i64 0, ptr %2, align 8, !tbaa !25
  br label %60

60:                                               ; preds = %59, %58
  %.not34 = icmp eq ptr %4, null
  br i1 %.not34, label %.thread, label %61

61:                                               ; preds = %60
  store i64 0, ptr %4, align 8, !tbaa !25
  br label %.thread

62:                                               ; preds = %35, %46, %54
  %63 = getelementptr inbounds nuw i8, ptr %14, i64 264
  %64 = load ptr, ptr %63, align 8, !tbaa !24
  %.not35 = icmp eq ptr %64, null
  br i1 %.not35, label %67, label %65

65:                                               ; preds = %62
  %66 = tail call ptr @H5FL_seq_free(ptr noundef nonnull @H5_H5G_entry_t_seq_free_list, ptr noundef nonnull %64) #9
  store ptr %66, ptr %63, align 8, !tbaa !24
  br label %67

67:                                               ; preds = %65, %62
  %68 = tail call ptr @H5FL_reg_free(ptr noundef nonnull @H5_H5G_node_t_reg_free_list, ptr noundef nonnull %14) #9
  br label %.thread

.thread:                                          ; preds = %16, %60, %61, %67, %6
  %.0 = phi i32 [ -1, %67 ], [ 0, %6 ], [ 0, %60 ], [ 0, %61 ], [ -1, %16 ]
  ret i32 %.0
}